; Function Attrs: mustprogress nofree norecurse nosync nounwind memory(readwrite, inaccessiblemem: none) uwtable
define internal void @_ZN12_GLOBAL__N_120act_case_split_queue10del_var_ehEj(ptr nocapture noundef nonnull readonly align 8 dereferenceable(48) %this, i32 noundef %v) unnamed_addr #4 align 2 {
entry:
  %m_queue = getelementptr inbounds i8, ptr %this, i64 24
  %0 = getelementptr inbounds i8, ptr %this, i64 40
  %m_queue.val = load ptr, ptr %0, align 8
  %cmp.i.i = icmp eq ptr %m_queue.val, null
  br i1 %cmp.i.i, label %_ZNK6vectorIiLb0EjE4sizeEv.exit.i, label %if.end.i.i

if.end.i.i:                                       ; preds = %entry
  %arrayidx.i.i = getelementptr inbounds i8, ptr %m_queue.val, i64 -4
  %1 = load i32, ptr %arrayidx.i.i, align 4
  br label %_ZNK6vectorIiLb0EjE4sizeEv.exit.i

_ZNK6vectorIiLb0EjE4sizeEv.exit.i:                ; preds = %if.end.i.i, %entry
  %retval.0.i.i = phi i32 [ %1, %if.end.i.i ], [ 0, %entry ]
  %cmp.i = icmp sgt i32 %retval.0.i.i, %v
  br i1 %cmp.i, label %_ZNK4heapIN12_GLOBAL__N_115bool_var_act_ltEE8containsEi.exit, label %if.end

_ZNK4heapIN12_GLOBAL__N_115bool_var_act_ltEE8containsEi.exit: ; preds = %_ZNK6vectorIiLb0EjE4sizeEv.exit.i
  %idxprom.i.i = zext i32 %v to i64
  %arrayidx.i2.i = getelementptr inbounds i32, ptr %m_queue.val, i64 %idxprom.i.i
  %2 = load i32, ptr %arrayidx.i2.i, align 4
  %cmp4.i.not = icmp eq i32 %2, 0
  br i1 %cmp4.i.not, label %if.end, label %if.then

if.then:                                          ; preds = %_ZNK4heapIN12_GLOBAL__N_115bool_var_act_ltEE8containsEi.exit
  tail call fastcc void @_ZN4heapIN12_GLOBAL__N_115bool_var_act_ltEE5eraseEi(ptr noundef nonnull align 8 dereferenceable(24) %m_queue, i32 noundef %v)
  br label %if.end

if.end:                                           ; preds = %_ZNK6vectorIiLb0EjE4sizeEv.exit.i, %if.then, %_ZNK4heapIN12_GLOBAL__N_115bool_var_act_ltEE8containsEi.exit
  ret void
}